; Function Attrs: nounwind uwtable
define dso_local void @addReplyPubsubPatSubscribed(ptr noundef %0, ptr noundef %1) local_unnamed_addr #2 {
  %3 = getelementptr inbounds nuw i8, ptr %0, i64 8
  %4 = load i64, ptr %3, align 8, !tbaa !31
  %5 = or i64 %4, 70368744177664
  store i64 %5, ptr %3, align 8, !tbaa !31
  %6 = getelementptr inbounds nuw i8, ptr %0, i64 28
  %7 = load i32, ptr %6, align 4, !tbaa !32
  %8 = icmp eq i32 %7, 2
  br i1 %8, label %9, label %11

9:                                                ; preds = %2
  %10 = load ptr, ptr getelementptr inbounds nuw (i8, ptr @shared, i64 80904), align 8, !tbaa !33
  tail call void @addReply(ptr noundef nonnull %0, ptr noundef %10) #9
  br label %12

11:                                               ; preds = %2
  tail call void @addReplyPushLen(ptr noundef nonnull %0, i64 noundef 3) #9
  br label %12

12:                                               ; preds = %11, %9
  %13 = load ptr, ptr getelementptr inbounds nuw (i8, ptr @shared, i64 384), align 8, !tbaa !41
  tail call void @addReply(ptr noundef nonnull %0, ptr noundef %13) #9
  tail call void @addReplyBulk(ptr noundef nonnull %0, ptr noundef %1) #9
  %14 = getelementptr inbounds nuw i8, ptr %0, i64 568
  %15 = load ptr, ptr %14, align 8, !tbaa !5
  %16 = getelementptr inbounds nuw i8, ptr %15, i64 24
  %17 = load i64, ptr %16, align 8, !tbaa !28
  %18 = getelementptr inbounds nuw i8, ptr %15, i64 32
  %19 = load i64, ptr %18, align 8, !tbaa !28
  %20 = getelementptr inbounds nuw i8, ptr %0, i64 576
  %21 = load ptr, ptr %20, align 8, !tbaa !29
  %22 = getelementptr inbounds nuw i8, ptr %21, i64 24
  %23 = load i64, ptr %22, align 8, !tbaa !28
  %24 = getelementptr inbounds nuw i8, ptr %21, i64 32
  %25 = load i64, ptr %24, align 8, !tbaa !28
  %26 = add i64 %19, %17
  %27 = add i64 %26, %23
  %28 = add i64 %27, %25
  %sext = shl i64 %28, 32
  %29 = ashr exact i64 %sext, 32
  tail call void @addReplyLongLong(ptr noundef nonnull %0, i64 noundef %29) #9
  %30 = and i64 %4, 70368744177664
  %.not = icmp eq i64 %30, 0
  br i1 %.not, label %31, label %34

31:                                               ; preds = %12
  %32 = load i64, ptr %3, align 8, !tbaa !31
  %33 = and i64 %32, -70368744177665
  store i64 %33, ptr %3, align 8, !tbaa !31
  br label %34

34:                                               ; preds = %31, %12
  ret void
}